; Function Attrs: mustprogress uwtable
define noundef i64 @_ZN8proxygen11HTTP1xCodec23generateChunkTerminatorERN5folly10IOBufQueueEm(ptr nocapture noundef nonnull align 8 dereferenceable(428) %this, ptr noundef nonnull align 8 dereferenceable(72) %writeBuf, i64 %0) unnamed_addr #3 align 2 {
entry:
  %egressChunked_ = getelementptr inbounds i8, ptr %this, i64 424
  %bf.load = load i32, ptr %egressChunked_, align 8
  %1 = and i32 %bf.load, 768
  %or.cond.not = icmp eq i32 %1, 768
  br i1 %or.cond.not, label %if.then, label %return

if.then:                                          ; preds = %entry
  %bf.clear8 = and i32 %bf.load, -513
  store i32 %bf.clear8, ptr %egressChunked_, align 8
  tail call void @_ZN5folly10IOBufQueue6appendEPKvm(ptr noundef nonnull align 8 dereferenceable(72) %writeBuf, ptr noundef nonnull @.str.26, i64 noundef 2)
  br label %return

return:                                           ; preds = %entry, %if.then
  %retval.0 = phi i64 [ 2, %if.then ], [ 0, %entry ]
  ret i64 %retval.0
}